; Function Attrs: mustprogress nounwind uwtable
define dso_local void @_ZN5clang8cross_tu27CrossTranslationUnitContext13getLookupNameB5cxx11EPKNS_9NamedDeclE(ptr dead_on_unwind noalias writable sret(%"class.std::optional.476") align 8 %0, ptr noundef %1) local_unnamed_addr #0 align 2 {
  %3 = alloca %"class.std::allocator", align 1
  %4 = alloca %"class.llvm::SmallString.486", align 8
  %5 = alloca %"class.std::__cxx11::basic_string", align 8
  %6 = getelementptr inbounds nuw i8, ptr %4, i64 24
  call void @_ZN4llvm15SmallVectorBaseImEC2EPvm(ptr noundef nonnull align 8 dereferenceable(152) %4, ptr noundef nonnull %6, i64 noundef 128) #18
  %7 = call noundef zeroext i1 @_ZN5clang5index18generateUSRForDeclEPKNS_4DeclERN4llvm15SmallVectorImplIcEE(ptr noundef %1, ptr noundef nonnull align 8 dereferenceable(24) %4) #18
  br i1 %7, label %8, label %10

8:                                                ; preds = %2
  %9 = getelementptr inbounds nuw i8, ptr %0, i64 32
  store i8 0, ptr %9, align 8
  br label %14

10:                                               ; preds = %2
  call void @llvm.lifetime.start.p0(i64 1, ptr nonnull %3)
  %11 = load ptr, ptr %4, align 8, !noalias !47
  %12 = call noundef i64 @_ZNK4llvm15SmallVectorBaseImE4sizeEv(ptr noundef nonnull align 8 dereferenceable(152) %4) #18, !noalias !47
  call void @_ZNSaIcEC1Ev(ptr noundef nonnull align 1 dereferenceable(1) %3) #18, !noalias !47
  call void @_ZNSt7__cxx1112basic_stringIcSt11char_traitsIcESaIcEEC1EPKcmRKS3_(ptr noundef nonnull align 8 dereferenceable(32) %5, ptr noundef %11, i64 noundef %12, ptr noundef nonnull align 1 dereferenceable(1) %3) #18
  call void @_ZNSaIcED1Ev(ptr noundef nonnull align 1 dereferenceable(1) %3) #18
  call void @llvm.lifetime.end.p0(i64 1, ptr nonnull %3)
  call void @_ZNSt7__cxx1112basic_stringIcSt11char_traitsIcESaIcEEC1EOS4_(ptr noundef nonnull align 8 dereferenceable(40) %0, ptr noundef nonnull align 8 dereferenceable(32) %5) #18
  %13 = getelementptr inbounds nuw i8, ptr %0, i64 32
  store i8 1, ptr %13, align 8
  call void @_ZNSt7__cxx1112basic_stringIcSt11char_traitsIcESaIcEED1Ev(ptr noundef nonnull align 8 dereferenceable(32) %5) #18
  br label %14

14:                                               ; preds = %10, %8
  %15 = call noundef i64 @_ZNK4llvm15SmallVectorBaseImE4sizeEv(ptr noundef nonnull align 8 dereferenceable(152) %4) #18
  %16 = load ptr, ptr %4, align 8
  %17 = icmp eq ptr %16, %6
  br i1 %17, label %_ZN4llvm11SmallStringILj128EED2Ev.exit, label %18

18:                                               ; preds = %14
  call void @free(ptr noundef %16) #18
  br label %_ZN4llvm11SmallStringILj128EED2Ev.exit

_ZN4llvm11SmallStringILj128EED2Ev.exit:           ; preds = %14, %18
  ret void
}